target datalayout = "e-m:e-p270:32:32-p271:32:32-p272:64:64-i64:64-i128:128-f80:128-n8:16:32:64-S128"
target triple = "x86_64-pc-linux-gnu"

%struct.lean_object = type { i32, i32 }
%struct.lean_ctor_object = type { %struct.lean_object, [0 x ptr] }

; Function Attrs: inlinehint nounwind uwtable
define internal ptr @lean_to_ctor(ptr noundef %0) #0 {
  %2 = alloca ptr, align 8
  store ptr %0, ptr %2, align 8, !tbaa !4
  %3 = load ptr, ptr %2, align 8, !tbaa !4
  ret ptr %3
}

; Function Attrs: inlinehint nounwind uwtable
define internal ptr @lean_ctor_obj_cptr(ptr noundef %0) #0 {
  %2 = alloca ptr, align 8
  store ptr %0, ptr %2, align 8, !tbaa !4
  %3 = load ptr, ptr %2, align 8, !tbaa !4
  %4 = call ptr @lean_to_ctor(ptr noundef %3)
  %5 = getelementptr inbounds nuw %struct.lean_ctor_object, ptr %4, i32 0, i32 1
  %6 = getelementptr inbounds [0 x ptr], ptr %5, i64 0, i64 0
  ret ptr %6
}

; Function Attrs: inlinehint nounwind uwtable
define internal zeroext i8 @lean_ptr_tag(ptr noundef %0) #0 {
  %2 = alloca ptr, align 8
  store ptr %0, ptr %2, align 8, !tbaa !4
  %3 = load ptr, ptr %2, align 8, !tbaa !4
  %4 = getelementptr inbounds nuw %struct.lean_object, ptr %3, i32 0, i32 1
  %5 = load i32, ptr %4, align 4
  %6 = lshr i32 %5, 24
  %7 = trunc i32 %6 to i8
  ret i8 %7
}

; Function Attrs: inlinehint nounwind uwtable
define internal i64 @lean_unbox(ptr noundef %0) #0 {
  %2 = alloca ptr, align 8
  store ptr %0, ptr %2, align 8, !tbaa !4
  %3 = load ptr, ptr %2, align 8, !tbaa !4
  %4 = ptrtoint ptr %3 to i64
  %5 = lshr i64 %4, 1
  ret i64 %5
}

; Function Attrs: alwaysinline nounwind uwtable
define internal zeroext i1 @lean_is_scalar(ptr noundef %0) #1 {
  %2 = alloca ptr, align 8
  store ptr %0, ptr %2, align 8, !tbaa !4
  %3 = load ptr, ptr %2, align 8, !tbaa !4
  %4 = ptrtoint ptr %3 to i64
  %5 = and i64 %4, 1
  %6 = icmp eq i64 %5, 1
  ret i1 %6
}

; Function Attrs: inlinehint nounwind uwtable
define internal ptr @lean_ctor_get(ptr noundef %0, i32 noundef %1) #0 {
  %3 = alloca ptr, align 8
  %4 = alloca i32, align 4
  store ptr %0, ptr %3, align 8, !tbaa !4
  store i32 %1, ptr %4, align 4, !tbaa !13
  %5 = load ptr, ptr %3, align 8, !tbaa !4
  %6 = call ptr @lean_ctor_obj_cptr(ptr noundef %5)
  %7 = load i32, ptr %4, align 4, !tbaa !13
  %8 = zext i32 %7 to i64
  %9 = getelementptr inbounds nuw ptr, ptr %6, i64 %8
  %10 = load ptr, ptr %9, align 8, !tbaa !4
  ret ptr %10
}

; Function Attrs: inlinehint nounwind uwtable
define internal i32 @lean_obj_tag(ptr noundef %0) #0 {
  %2 = alloca i32, align 4
  %3 = alloca ptr, align 8
  store ptr %0, ptr %3, align 8, !tbaa !4
  %4 = load ptr, ptr %3, align 8, !tbaa !4
  %5 = call zeroext i1 @lean_is_scalar(ptr noundef %4)
  br i1 %5, label %6, label %10

6:                                                ; preds = %1
  %7 = load ptr, ptr %3, align 8, !tbaa !4
  %8 = call i64 @lean_unbox(ptr noundef %7)
  %9 = trunc i64 %8 to i32
  store i32 %9, ptr %2, align 4
  br label %14

10:                                               ; preds = %1
  %11 = load ptr, ptr %3, align 8, !tbaa !4
  %12 = call zeroext i8 @lean_ptr_tag(ptr noundef %11)
  %13 = zext i8 %12 to i32
  store i32 %13, ptr %2, align 4
  br label %14

14:                                               ; preds = %10, %6
  %15 = load i32, ptr %2, align 4
  ret i32 %15
}

; Function Attrs: nounwind uwtable
define zeroext i8 @l_Option_beqOption____x40_Init_Data_Option_Basic___hyg_160____at_Lean_Compiler_LCNF_ToLCNF_toLCNF_visitCasesImplementedBy___spec__2(ptr noundef %0, ptr noundef %1) #2 {
  %3 = alloca i8, align 1
  %4 = alloca ptr, align 8
  %5 = alloca ptr, align 8
  %6 = alloca i8, align 1
  %7 = alloca i8, align 1
  %8 = alloca i8, align 1
  %9 = alloca ptr, align 8
  %10 = alloca ptr, align 8
  %11 = alloca i8, align 1
  store ptr %0, ptr %4, align 8, !tbaa !4
  store ptr %1, ptr %5, align 8, !tbaa !4
  br label %12

12:                                               ; preds = %2
  %13 = load ptr, ptr %4, align 8, !tbaa !4
  %14 = call i32 @lean_obj_tag(ptr noundef %13)
  %15 = icmp eq i32 %14, 0
  br i1 %15, label %16, label %24

16:                                               ; preds = %12
  %17 = load ptr, ptr %5, align 8, !tbaa !4
  %18 = call i32 @lean_obj_tag(ptr noundef %17)
  %19 = icmp eq i32 %18, 0
  br i1 %19, label %20, label %22

20:                                               ; preds = %16
  call void @llvm.lifetime.start.p0(i64 1, ptr %6) #8
  store i8 1, ptr %6, align 1, !tbaa !12
  %21 = load i8, ptr %6, align 1, !tbaa !12
  store i8 %21, ptr %3, align 1
  call void @llvm.lifetime.end.p0(i64 1, ptr %6) #8
  br label %39

22:                                               ; preds = %16
  call void @llvm.lifetime.start.p0(i64 1, ptr %7) #8
  store i8 0, ptr %7, align 1, !tbaa !12
  %23 = load i8, ptr %7, align 1, !tbaa !12
  store i8 %23, ptr %3, align 1
  call void @llvm.lifetime.end.p0(i64 1, ptr %7) #8
  br label %39

24:                                               ; preds = %12
  %25 = load ptr, ptr %5, align 8, !tbaa !4
  %26 = call i32 @lean_obj_tag(ptr noundef %25)
  %27 = icmp eq i32 %26, 0
  br i1 %27, label %28, label %30

28:                                               ; preds = %24
  call void @llvm.lifetime.start.p0(i64 1, ptr %8) #8
  store i8 0, ptr %8, align 1, !tbaa !12
  %29 = load i8, ptr %8, align 1, !tbaa !12
  store i8 %29, ptr %3, align 1
  call void @llvm.lifetime.end.p0(i64 1, ptr %8) #8
  br label %39

30:                                               ; preds = %24
  call void @llvm.lifetime.start.p0(i64 8, ptr %9) #8
  call void @llvm.lifetime.start.p0(i64 8, ptr %10) #8
  call void @llvm.lifetime.start.p0(i64 1, ptr %11) #8
  %31 = load ptr, ptr %4, align 8, !tbaa !4
  %32 = call ptr @lean_ctor_get(ptr noundef %31, i32 noundef 0)
  store ptr %32, ptr %9, align 8, !tbaa !4
  %33 = load ptr, ptr %5, align 8, !tbaa !4
  %34 = call ptr @lean_ctor_get(ptr noundef %33, i32 noundef 0)
  store ptr %34, ptr %10, align 8, !tbaa !4
  %35 = load ptr, ptr %9, align 8, !tbaa !4
  %36 = load ptr, ptr %10, align 8, !tbaa !4
  %37 = call zeroext i8 @lean_name_eq(ptr noundef %35, ptr noundef %36)
  store i8 %37, ptr %11, align 1, !tbaa !12
  %38 = load i8, ptr %11, align 1, !tbaa !12
  store i8 %38, ptr %3, align 1
  call void @llvm.lifetime.end.p0(i64 1, ptr %11) #8
  call void @llvm.lifetime.end.p0(i64 8, ptr %10) #8
  call void @llvm.lifetime.end.p0(i64 8, ptr %9) #8
  br label %39

39:                                               ; preds = %30, %28, %22, %20
  %40 = load i8, ptr %3, align 1
  ret i8 %40
}